target datalayout = "e-m:e-p270:32:32-p271:32:32-p272:64:64-i64:64-i128:128-f80:128-n8:16:32:64-S128"
target triple = "x86_64-pc-linux-gnu"

%struct.Gia_Man_t_ = type { ptr, ptr, i32, i32, i32, i32, ptr, ptr, i32, i32, i32, ptr, ptr, %struct.Vec_Int_t_, %struct.Vec_Int_t_, i32, i32, i32, %struct.Vec_Int_t_, ptr, ptr, ptr, i32, i32, i32, i32, ptr, ptr, ptr, ptr, ptr, i32, i32, ptr, i32, ptr, ptr, ptr, ptr, ptr, ptr, ptr, ptr, ptr, ptr, ptr, ptr, ptr, ptr, ptr, ptr, ptr, ptr, %struct.Vec_Int_t_, %struct.Vec_Int_t_, ptr, ptr, ptr, ptr, ptr, ptr, ptr, ptr, ptr, ptr, ptr, ptr, ptr, ptr, ptr, ptr, ptr, ptr, ptr, ptr, ptr, i32, float, float, ptr, ptr, i32, ptr, ptr, ptr, ptr, ptr, ptr, ptr, ptr, ptr, ptr, ptr, ptr, ptr, ptr, ptr, i64, i64, ptr, ptr, i32, i32, i32, i32, i32, i32, i32, i32, i32, i32, i32, i32, ptr, ptr, ptr, ptr, ptr, ptr, ptr, ptr, i32, i32, i32, ptr, i32, i32, ptr, ptr, ptr, ptr, ptr, ptr, i32, i32, ptr, %struct.Vec_Int_t_, %struct.Vec_Int_t_, %struct.Vec_Int_t_, ptr, ptr, ptr, i32, i32, i32, i32, ptr, ptr, ptr, ptr, ptr }
%struct.Vec_Int_t_ = type { i32, i32, ptr }
%struct.Str_Ntk_t_ = type { i32, i32, ptr, %struct.Vec_Int_t_, [8 x i32], i32, i32, i32 }
%struct.timespec = type { i64, i64 }

@.str.24 = private unnamed_addr constant [71 x i8] c"Network contains %d ands, %d xors, %d muxes (%d trees in %d groups).  \00", align 1
@.str.25 = private unnamed_addr constant [5 x i8] c"Time\00", align 1
@.str.26 = private unnamed_addr constant [5 x i8] c"%s =\00", align 1
@.str.27 = private unnamed_addr constant [11 x i8] c"%9.2f sec\0A\00", align 1

; Function Attrs: inlinehint nounwind uwtable
define internal void @Abc_PrintTime(i32 noundef %0, ptr noundef %1, i64 noundef %2) #3 {
  %4 = alloca i32, align 4
  %5 = alloca ptr, align 8
  %6 = alloca i64, align 8
  store i32 %0, ptr %4, align 4, !tbaa !39
  store ptr %1, ptr %5, align 8, !tbaa !45
  store i64 %2, ptr %6, align 8, !tbaa !117
  %7 = load ptr, ptr %5, align 8, !tbaa !45
  call void (i32, ptr, ...) @Abc_Print(i32 noundef 1, ptr noundef @.str.26, ptr noundef %7)
  %8 = load i64, ptr %6, align 8, !tbaa !117
  %9 = sitofp i64 %8 to double
  %10 = fmul double 1.000000e+00, %9
  %11 = fdiv double %10, 1.000000e+06
  call void (i32, ptr, ...) @Abc_Print(i32 noundef 1, ptr noundef @.str.27, double noundef %11)
  ret void
}

; Function Attrs: inlinehint nounwind uwtable
define internal void @Str_NtkDelete(ptr noundef %0) #3 {
  %2 = alloca ptr, align 8
  store ptr %0, ptr %2, align 8, !tbaa !8
  %3 = load ptr, ptr %2, align 8, !tbaa !8
  %4 = getelementptr inbounds nuw %struct.Str_Ntk_t_, ptr %3, i32 0, i32 3
  %5 = getelementptr inbounds nuw %struct.Vec_Int_t_, ptr %4, i32 0, i32 2
  %6 = load ptr, ptr %5, align 8, !tbaa !152
  %7 = icmp ne ptr %6, null
  br i1 %7, label %8, label %16

8:                                                ; preds = %1
  %9 = load ptr, ptr %2, align 8, !tbaa !8
  %10 = getelementptr inbounds nuw %struct.Str_Ntk_t_, ptr %9, i32 0, i32 3
  %11 = getelementptr inbounds nuw %struct.Vec_Int_t_, ptr %10, i32 0, i32 2
  %12 = load ptr, ptr %11, align 8, !tbaa !152
  call void @free(ptr noundef %12) #13
  %13 = load ptr, ptr %2, align 8, !tbaa !8
  %14 = getelementptr inbounds nuw %struct.Str_Ntk_t_, ptr %13, i32 0, i32 3
  %15 = getelementptr inbounds nuw %struct.Vec_Int_t_, ptr %14, i32 0, i32 2
  store ptr null, ptr %15, align 8, !tbaa !152
  br label %17

16:                                               ; preds = %1
  br label %17

17:                                               ; preds = %16, %8
  %18 = load ptr, ptr %2, align 8, !tbaa !8
  %19 = getelementptr inbounds nuw %struct.Str_Ntk_t_, ptr %18, i32 0, i32 2
  %20 = load ptr, ptr %19, align 8, !tbaa !32
  %21 = icmp ne ptr %20, null
  br i1 %21, label %22, label %28

22:                                               ; preds = %17
  %23 = load ptr, ptr %2, align 8, !tbaa !8
  %24 = getelementptr inbounds nuw %struct.Str_Ntk_t_, ptr %23, i32 0, i32 2
  %25 = load ptr, ptr %24, align 8, !tbaa !32
  call void @free(ptr noundef %25) #13
  %26 = load ptr, ptr %2, align 8, !tbaa !8
  %27 = getelementptr inbounds nuw %struct.Str_Ntk_t_, ptr %26, i32 0, i32 2
  store ptr null, ptr %27, align 8, !tbaa !32
  br label %29

28:                                               ; preds = %17
  br label %29

29:                                               ; preds = %28, %22
  %30 = load ptr, ptr %2, align 8, !tbaa !8
  %31 = icmp ne ptr %30, null
  br i1 %31, label %32, label %34

32:                                               ; preds = %29
  %33 = load ptr, ptr %2, align 8, !tbaa !8
  call void @free(ptr noundef %33) #13
  store ptr null, ptr %2, align 8, !tbaa !8
  br label %35

34:                                               ; preds = %29
  br label %35

35:                                               ; preds = %34, %32
  ret void
}

; Function Attrs: inlinehint nounwind uwtable
define internal void @Str_NtkPs(ptr noundef %0, i64 noundef %1) #3 {
  %3 = alloca ptr, align 8
  %4 = alloca i64, align 8
  store ptr %0, ptr %3, align 8, !tbaa !8
  store i64 %1, ptr %4, align 8, !tbaa !117
  %5 = load ptr, ptr %3, align 8, !tbaa !8
  %6 = getelementptr inbounds nuw %struct.Str_Ntk_t_, ptr %5, i32 0, i32 4
  %7 = getelementptr inbounds [8 x i32], ptr %6, i64 0, i64 3
  %8 = load i32, ptr %7, align 4, !tbaa !39
  %9 = load ptr, ptr %3, align 8, !tbaa !8
  %10 = getelementptr inbounds nuw %struct.Str_Ntk_t_, ptr %9, i32 0, i32 4
  %11 = getelementptr inbounds [8 x i32], ptr %10, i64 0, i64 4
  %12 = load i32, ptr %11, align 8, !tbaa !39
  %13 = load ptr, ptr %3, align 8, !tbaa !8
  %14 = getelementptr inbounds nuw %struct.Str_Ntk_t_, ptr %13, i32 0, i32 4
  %15 = getelementptr inbounds [8 x i32], ptr %14, i64 0, i64 5
  %16 = load i32, ptr %15, align 4, !tbaa !39
  %17 = load ptr, ptr %3, align 8, !tbaa !8
  %18 = getelementptr inbounds nuw %struct.Str_Ntk_t_, ptr %17, i32 0, i32 5
  %19 = load i32, ptr %18, align 8, !tbaa !104
  %20 = load ptr, ptr %3, align 8, !tbaa !8
  %21 = getelementptr inbounds nuw %struct.Str_Ntk_t_, ptr %20, i32 0, i32 6
  %22 = load i32, ptr %21, align 4, !tbaa !107
  %23 = call i32 (ptr, ...) @printf(ptr noundef @.str.24, i32 noundef %8, i32 noundef %12, i32 noundef %16, i32 noundef %19, i32 noundef %22)
  %24 = load i64, ptr %4, align 8, !tbaa !117
  call void @Abc_PrintTime(i32 noundef 1, ptr noundef @.str.25, i64 noundef %24)
  ret void
}

; Function Attrs: inlinehint nounwind uwtable
define internal i64 @Abc_Clock() #3 {
  %1 = alloca i64, align 8
  %2 = alloca %struct.timespec, align 8
  %3 = alloca i32, align 4
  %4 = alloca i64, align 8
  call void @llvm.lifetime.start.p0(i64 16, ptr %2) #13
  %5 = call i32 @clock_gettime(i32 noundef 1, ptr noundef %2) #13
  %6 = icmp slt i32 %5, 0
  br i1 %6, label %7, label %8

7:                                                ; preds = %0
  store i64 -1, ptr %1, align 8
  store i32 1, ptr %3, align 4
  br label %19

8:                                                ; preds = %0
  call void @llvm.lifetime.start.p0(i64 8, ptr %4) #13
  %9 = getelementptr inbounds nuw %struct.timespec, ptr %2, i32 0, i32 0
  %10 = load i64, ptr %9, align 8, !tbaa !177
  %11 = mul nsw i64 %10, 1000000
  store i64 %11, ptr %4, align 8, !tbaa !117
  %12 = getelementptr inbounds nuw %struct.timespec, ptr %2, i32 0, i32 1
  %13 = load i64, ptr %12, align 8, !tbaa !179
  %14 = mul nsw i64 %13, 1000000
  %15 = sdiv i64 %14, 1000000000
  %16 = load i64, ptr %4, align 8, !tbaa !117
  %17 = add nsw i64 %16, %15
  store i64 %17, ptr %4, align 8, !tbaa !117
  %18 = load i64, ptr %4, align 8, !tbaa !117
  store i64 %18, ptr %1, align 8
  store i32 1, ptr %3, align 4
  call void @llvm.lifetime.end.p0(i64 8, ptr %4) #13
  br label %19

19:                                               ; preds = %8, %7
  call void @llvm.lifetime.end.p0(i64 16, ptr %2) #13
  %20 = load i64, ptr %1, align 8
  ret i64 %20
}

; Function Attrs: nounwind uwtable
define ptr @Gia_ManLutBalance(ptr noundef %0, i32 noundef %1, i32 noundef %2, i32 noundef %3, i32 noundef %4, i32 noundef %5) #0 {
  %7 = alloca ptr, align 8
  %8 = alloca ptr, align 8
  %9 = alloca i32, align 4
  %10 = alloca i32, align 4
  %11 = alloca i32, align 4
  %12 = alloca i32, align 4
  %13 = alloca i32, align 4
  %14 = alloca ptr, align 8
  %15 = alloca ptr, align 8
  %16 = alloca i64, align 8
  %17 = alloca ptr, align 8
  %18 = alloca i32, align 4
  store ptr %0, ptr %8, align 8, !tbaa !3
  store i32 %1, ptr %9, align 4, !tbaa !39
  store i32 %2, ptr %10, align 4, !tbaa !39
  store i32 %3, ptr %11, align 4, !tbaa !39
  store i32 %4, ptr %12, align 4, !tbaa !39
  store i32 %5, ptr %13, align 4, !tbaa !39
  call void @llvm.lifetime.start.p0(i64 8, ptr %14) #13
  call void @llvm.lifetime.start.p0(i64 8, ptr %15) #13
  call void @llvm.lifetime.start.p0(i64 8, ptr %16) #13
  %19 = call i64 @Abc_Clock()
  store i64 %19, ptr %16, align 8, !tbaa !117
  %20 = load ptr, ptr %8, align 8, !tbaa !3
  %21 = getelementptr inbounds nuw %struct.Gia_Man_t_, ptr %20, i32 0, i32 95
  %22 = load ptr, ptr %21, align 8, !tbaa !146
  %23 = icmp ne ptr %22, null
  br i1 %23, label %24, label %78

24:                                               ; preds = %6
  %25 = load ptr, ptr %8, align 8, !tbaa !3
  %26 = getelementptr inbounds nuw %struct.Gia_Man_t_, ptr %25, i32 0, i32 95
  %27 = load ptr, ptr %26, align 8, !tbaa !146
  %28 = call i32 @Tim_ManBoxNum(ptr noundef %27)
  %29 = icmp ne i32 %28, 0
  br i1 %29, label %30, label %78

30:                                               ; preds = %24
  %31 = load ptr, ptr %8, align 8, !tbaa !3
  %32 = call i32 @Gia_ManIsNormalized(ptr noundef %31)
  %33 = icmp ne i32 %32, 0
  br i1 %33, label %34, label %78

34:                                               ; preds = %30
  call void @llvm.lifetime.start.p0(i64 8, ptr %17) #13
  %35 = load ptr, ptr %8, align 8, !tbaa !3
  %36 = getelementptr inbounds nuw %struct.Gia_Man_t_, ptr %35, i32 0, i32 95
  %37 = load ptr, ptr %36, align 8, !tbaa !146
  store ptr %37, ptr %17, align 8, !tbaa !150
  %38 = load ptr, ptr %17, align 8, !tbaa !150
  %39 = call ptr @Tim_ManDup(ptr noundef %38, i32 noundef 16)
  %40 = load ptr, ptr %8, align 8, !tbaa !3
  %41 = getelementptr inbounds nuw %struct.Gia_Man_t_, ptr %40, i32 0, i32 95
  store ptr %39, ptr %41, align 8, !tbaa !146
  %42 = load ptr, ptr %8, align 8, !tbaa !3
  %43 = call ptr @Gia_ManDupUnnormalize(ptr noundef %42)
  store ptr %43, ptr %15, align 8, !tbaa !3
  %44 = load ptr, ptr %15, align 8, !tbaa !3
  %45 = icmp eq ptr %44, null
  br i1 %45, label %46, label %47

46:                                               ; preds = %34
  store ptr null, ptr %7, align 8
  store i32 1, ptr %18, align 4
  br label %75

47:                                               ; preds = %34
  %48 = load ptr, ptr %15, align 8, !tbaa !3
  %49 = load ptr, ptr %8, align 8, !tbaa !3
  call void @Gia_ManTransferTiming(ptr noundef %48, ptr noundef %49)
  %50 = load ptr, ptr %15, align 8, !tbaa !3
  store ptr %50, ptr %8, align 8, !tbaa !3
  %51 = load ptr, ptr %8, align 8, !tbaa !3
  %52 = call ptr @Str_ManNormalize(ptr noundef %51)
  store ptr %52, ptr %14, align 8, !tbaa !8
  %53 = load ptr, ptr %8, align 8, !tbaa !3
  %54 = load ptr, ptr %14, align 8, !tbaa !8
  %55 = load i32, ptr %9, align 4, !tbaa !39
  %56 = load i32, ptr %10, align 4, !tbaa !39
  %57 = load i32, ptr %11, align 4, !tbaa !39
  %58 = load i32, ptr %12, align 4, !tbaa !39
  %59 = load i32, ptr %13, align 4, !tbaa !39
  %60 = call ptr @Str_NtkBalance(ptr noundef %53, ptr noundef %54, i32 noundef %55, i32 noundef %56, i32 noundef %57, i32 noundef %58, i32 noundef %59)
  store ptr %60, ptr %15, align 8, !tbaa !3
  %61 = load ptr, ptr %15, align 8, !tbaa !3
  %62 = load ptr, ptr %8, align 8, !tbaa !3
  call void @Gia_ManTransferTiming(ptr noundef %61, ptr noundef %62)
  %63 = load ptr, ptr %8, align 8, !tbaa !3
  call void @Gia_ManStop(ptr noundef %63)
  %64 = load ptr, ptr %15, align 8, !tbaa !3
  store ptr %64, ptr %8, align 8, !tbaa !3
  %65 = call ptr @Gia_ManDupNormalize(ptr noundef %64, i32 noundef 0)
  store ptr %65, ptr %15, align 8, !tbaa !3
  %66 = load ptr, ptr %15, align 8, !tbaa !3
  %67 = load ptr, ptr %8, align 8, !tbaa !3
  call void @Gia_ManTransferTiming(ptr noundef %66, ptr noundef %67)
  %68 = load ptr, ptr %8, align 8, !tbaa !3
  call void @Gia_ManStop(ptr noundef %68)
  %69 = load ptr, ptr %15, align 8, !tbaa !3
  %70 = getelementptr inbounds nuw %struct.Gia_Man_t_, ptr %69, i32 0, i32 95
  %71 = load ptr, ptr %70, align 8, !tbaa !146
  call void @Tim_ManStop(ptr noundef %71)
  %72 = load ptr, ptr %17, align 8, !tbaa !150
  %73 = load ptr, ptr %15, align 8, !tbaa !3
  %74 = getelementptr inbounds nuw %struct.Gia_Man_t_, ptr %73, i32 0, i32 95
  store ptr %72, ptr %74, align 8, !tbaa !146
  store i32 0, ptr %18, align 4
  br label %75

75:                                               ; preds = %47, %46
  call void @llvm.lifetime.end.p0(i64 8, ptr %17) #13
  %76 = load i32, ptr %18, align 4
  switch i32 %76, label %102 [
    i32 0, label %77
  ]

77:                                               ; preds = %75
  br label %91

78:                                               ; preds = %30, %24, %6
  %79 = load ptr, ptr %8, align 8, !tbaa !3
  %80 = call ptr @Str_ManNormalize(ptr noundef %79)
  store ptr %80, ptr %14, align 8, !tbaa !8
  %81 = load ptr, ptr %8, align 8, !tbaa !3
  %82 = load ptr, ptr %14, align 8, !tbaa !8
  %83 = load i32, ptr %9, align 4, !tbaa !39
  %84 = load i32, ptr %10, align 4, !tbaa !39
  %85 = load i32, ptr %11, align 4, !tbaa !39
  %86 = load i32, ptr %12, align 4, !tbaa !39
  %87 = load i32, ptr %13, align 4, !tbaa !39
  %88 = call ptr @Str_NtkBalance(ptr noundef %81, ptr noundef %82, i32 noundef %83, i32 noundef %84, i32 noundef %85, i32 noundef %86, i32 noundef %87)
  store ptr %88, ptr %15, align 8, !tbaa !3
  %89 = load ptr, ptr %15, align 8, !tbaa !3
  %90 = load ptr, ptr %8, align 8, !tbaa !3
  call void @Gia_ManTransferTiming(ptr noundef %89, ptr noundef %90)
  br label %91

91:                                               ; preds = %78, %77
  %92 = load i32, ptr %13, align 4, !tbaa !39
  %93 = icmp ne i32 %92, 0
  br i1 %93, label %94, label %99

94:                                               ; preds = %91
  %95 = load ptr, ptr %14, align 8, !tbaa !8
  %96 = call i64 @Abc_Clock()
  %97 = load i64, ptr %16, align 8, !tbaa !117
  %98 = sub nsw i64 %96, %97
  call void @Str_NtkPs(ptr noundef %95, i64 noundef %98)
  br label %99

99:                                               ; preds = %94, %91
  %100 = load ptr, ptr %14, align 8, !tbaa !8
  call void @Str_NtkDelete(ptr noundef %100)
  %101 = load ptr, ptr %15, align 8, !tbaa !3
  store ptr %101, ptr %7, align 8
  store i32 1, ptr %18, align 4
  br label %102

102:                                              ; preds = %99, %75
  call void @llvm.lifetime.end.p0(i64 8, ptr %16) #13
  call void @llvm.lifetime.end.p0(i64 8, ptr %15) #13
  call void @llvm.lifetime.end.p0(i64 8, ptr %14) #13
  %103 = load ptr, ptr %7, align 8
  ret ptr %103
}