; Function Attrs: nounwind uwtable
define noundef ptr @Gia_ManLutBalance(ptr noundef %0, i32 noundef %1, i32 noundef %2, i32 noundef %3, i32 noundef %4, i32 noundef %5) local_unnamed_addr #0 {
  %7 = alloca %struct.timespec, align 8
  %8 = alloca %struct.timespec, align 8
  call void @llvm.lifetime.start.p0(i64 16, ptr nonnull %8) #26
  %9 = call i32 @clock_gettime(i32 noundef 1, ptr noundef nonnull %8) #26
  %10 = icmp slt i32 %9, 0
  br i1 %10, label %Abc_Clock.exit, label %11

11:                                               ; preds = %6
  %12 = load i64, ptr %8, align 8, !tbaa !132
  %.neg61 = mul i64 %12, -1000000
  %13 = getelementptr inbounds nuw i8, ptr %8, i64 8
  %14 = load i64, ptr %13, align 8, !tbaa !134
  %.neg = sdiv i64 %14, -1000
  %.neg62 = add i64 %.neg, %.neg61
  br label %Abc_Clock.exit

Abc_Clock.exit:                                   ; preds = %6, %11
  %.0.i.neg = phi i64 [ %.neg62, %11 ], [ 1, %6 ]
  call void @llvm.lifetime.end.p0(i64 16, ptr nonnull %8) #26
  %15 = getelementptr inbounds nuw i8, ptr %0, i64 736
  %16 = load ptr, ptr %15, align 8, !tbaa !129
  %.not = icmp eq ptr %16, null
  br i1 %.not, label %31, label %17

17:                                               ; preds = %Abc_Clock.exit
  %18 = call i32 @Tim_ManBoxNum(ptr noundef nonnull %16) #26
  %.not53 = icmp eq i32 %18, 0
  br i1 %.not53, label %31, label %19

19:                                               ; preds = %17
  %20 = call i32 @Gia_ManIsNormalized(ptr noundef nonnull %0) #26
  %.not54 = icmp eq i32 %20, 0
  br i1 %.not54, label %31, label %21

21:                                               ; preds = %19
  %22 = load ptr, ptr %15, align 8, !tbaa !129
  %23 = call ptr @Tim_ManDup(ptr noundef %22, i32 noundef 16) #26
  store ptr %23, ptr %15, align 8, !tbaa !129
  %24 = call ptr @Gia_ManDupUnnormalize(ptr noundef nonnull %0) #26
  %.not55 = icmp eq ptr %24, null
  br i1 %.not55, label %.thread, label %25

25:                                               ; preds = %21
  call void @Gia_ManTransferTiming(ptr noundef nonnull %24, ptr noundef nonnull %0) #26
  %26 = call ptr @Str_ManNormalize(ptr noundef nonnull %24)
  %27 = call ptr @Str_NtkBalance(ptr noundef nonnull %24, ptr noundef %26, i32 noundef %1, i32 noundef %2, i32 noundef %3, i32 noundef %4, i32 noundef %5)
  call void @Gia_ManTransferTiming(ptr noundef %27, ptr noundef nonnull %24) #26
  call void @Gia_ManStop(ptr noundef nonnull %24) #26
  %28 = call ptr @Gia_ManDupNormalize(ptr noundef %27, i32 noundef 0) #26
  call void @Gia_ManTransferTiming(ptr noundef %28, ptr noundef %27) #26
  call void @Gia_ManStop(ptr noundef %27) #26
  %29 = getelementptr inbounds nuw i8, ptr %28, i64 736
  %30 = load ptr, ptr %29, align 8, !tbaa !129
  call void @Tim_ManStop(ptr noundef %30) #26
  store ptr %22, ptr %29, align 8, !tbaa !129
  br label %34

31:                                               ; preds = %19, %17, %Abc_Clock.exit
  %32 = call ptr @Str_ManNormalize(ptr noundef nonnull %0)
  %33 = call ptr @Str_NtkBalance(ptr noundef nonnull %0, ptr noundef %32, i32 noundef %1, i32 noundef %2, i32 noundef %3, i32 noundef %4, i32 noundef %5)
  call void @Gia_ManTransferTiming(ptr noundef %33, ptr noundef nonnull %0) #26
  br label %34

34:                                               ; preds = %25, %31
  %.149 = phi ptr [ %26, %25 ], [ %32, %31 ]
  %.147 = phi ptr [ %28, %25 ], [ %33, %31 ]
  %.not56 = icmp eq i32 %5, 0
  br i1 %.not56, label %59, label %35

35:                                               ; preds = %34
  call void @llvm.lifetime.start.p0(i64 16, ptr nonnull %7) #26
  %36 = call i32 @clock_gettime(i32 noundef 1, ptr noundef nonnull %7) #26
  %37 = icmp slt i32 %36, 0
  br i1 %37, label %Abc_Clock.exit58, label %38

38:                                               ; preds = %35
  %39 = load i64, ptr %7, align 8, !tbaa !132
  %40 = mul nsw i64 %39, 1000000
  %41 = getelementptr inbounds nuw i8, ptr %7, i64 8
  %42 = load i64, ptr %41, align 8, !tbaa !134
  %43 = sdiv i64 %42, 1000
  %44 = add nsw i64 %43, %40
  br label %Abc_Clock.exit58

Abc_Clock.exit58:                                 ; preds = %35, %38
  %.0.i57 = phi i64 [ %44, %38 ], [ -1, %35 ]
  call void @llvm.lifetime.end.p0(i64 16, ptr nonnull %7) #26
  %45 = add i64 %.0.i57, %.0.i.neg
  %46 = getelementptr inbounds nuw i8, ptr %.149, i64 44
  %47 = load i32, ptr %46, align 4, !tbaa !38
  %48 = getelementptr inbounds nuw i8, ptr %.149, i64 48
  %49 = load i32, ptr %48, align 8, !tbaa !38
  %50 = getelementptr inbounds nuw i8, ptr %.149, i64 52
  %51 = load i32, ptr %50, align 4, !tbaa !38
  %52 = getelementptr inbounds nuw i8, ptr %.149, i64 64
  %53 = load i32, ptr %52, align 8, !tbaa !98
  %54 = getelementptr inbounds nuw i8, ptr %.149, i64 68
  %55 = load i32, ptr %54, align 4, !tbaa !100
  %56 = call i32 (ptr, ...) @printf(ptr noundef nonnull dereferenceable(1) @.str.24, i32 noundef %47, i32 noundef %49, i32 noundef %51, i32 noundef %53, i32 noundef %55)
  call void (i32, ptr, ...) @Abc_Print(i32 poison, ptr noundef nonnull @.str.26, ptr noundef nonnull @.str.25)
  %57 = sitofp i64 %45 to double
  %58 = fdiv double %57, 1.000000e+06
  call void (i32, ptr, ...) @Abc_Print(i32 poison, ptr noundef nonnull @.str.27, double noundef %58)
  br label %59

59:                                               ; preds = %Abc_Clock.exit58, %34
  %60 = getelementptr inbounds nuw i8, ptr %.149, i64 24
  %61 = load ptr, ptr %60, align 8, !tbaa !135
  %.not.i = icmp eq ptr %61, null
  br i1 %.not.i, label %63, label %62

62:                                               ; preds = %59
  call void @free(ptr noundef nonnull %61) #26
  store ptr null, ptr %60, align 8, !tbaa !135
  br label %63

63:                                               ; preds = %62, %59
  %64 = getelementptr inbounds nuw i8, ptr %.149, i64 8
  %65 = load ptr, ptr %64, align 8, !tbaa !33
  %.not10.i = icmp eq ptr %65, null
  br i1 %.not10.i, label %Str_NtkDelete.exit, label %66

66:                                               ; preds = %63
  call void @free(ptr noundef nonnull %65) #26
  br label %Str_NtkDelete.exit

Str_NtkDelete.exit:                               ; preds = %63, %66
  call void @free(ptr noundef nonnull %.149) #26
  br label %.thread

.thread:                                          ; preds = %21, %Str_NtkDelete.exit
  %.1 = phi ptr [ %.147, %Str_NtkDelete.exit ], [ null, %21 ]
  ret ptr %.1
}